(dp0
VH
p1
(lp2
I47
aI4
aI28
aI22
aI27
aI12
aI19
aI6
aI35
aI11
aI71
aI8
aI16
aI16
aI25
aI21
aI19
aI2
aI25
aI20
aI0
asVL
p3
(lp4
I10
aI5
aI10
aI13
aI38
aI9
aI5
aI3
aI17
aI1
aI13
aI13
aI11
aI20
aI14
aI5
aI8
aI0
aI9
aI4
aI0
asS'P'
p5
(lp6
I66
aI14
aI44
aI47
aI79
aI25
aI41
aI12
aI66
aI18
aI103
aI27
aI35
aI40
aI48
aI32
aI37
aI5
aI57
aI35
aI0
asVS
p7
(lp8
I6
aI2
aI4
aI4
aI0
aI3
aI11
aI3
aI7
aI3
aI13
aI1
aI3
aI0
aI4
aI1
aI5
aI3
aI18
aI8
aI0
asS'S_total'
p9
I99
sS'T_total'
p10
I90
sVT
p11
(lp12
I3
aI3
aI2
aI8
aI14
aI1
aI6
aI0
aI7
aI3
aI6
aI5
aI5
aI4
aI5
aI5
aI5
aI0
aI5
aI3
aI0
asS'H_total'
p13
I434
sS'total'
p14
I2
sS'L_total'
p15
I208
sS'total_residues'
p16
I831
s.