(dp0
S'S_Polar_total'
p1
I6752243
sS'H'
p2
(lp3
I3511186
aI386191
aI2809888
aI1589512
aI1173458
aI1325312
aI1974702
aI694521
aI2062777
aI889270
aI3857826
aI1059162
aI1496046
aI761345
aI1604024
aI1885777
aI1387332
aI494477
aI2071513
aI1122172
aI0
asS'L_Hydrophobic_total'
p4
I9483271
sS'L'
p5
(lp6
I1723232
aI382044
aI1486620
aI2098964
aI3043508
aI865654
aI970010
aI684034
aI1565176
aI485018
aI1777598
aI1629059
aI929078
aI2396101
aI2084355
aI1271296
aI1669213
aI295112
aI1265859
aI768334
aI0
asS'H_Hydrophobic_total'
p7
I15519418
sS'S'
p8
(lp9
I1159040
aI380660
aI826632
aI565175
aI906127
aI1054095
aI1785108
aI420001
aI867785
aI413892
aI1921094
aI487534
aI566091
aI349180
aI1028297
aI808224
aI1294464
aI344733
aI2500329
aI958089
aI0
asS'S_total'
p10
I18636550
sS'T_Hydrophobic_total'
p11
I3190025
sS'T'
p12
(lp13
I498155
aI114199
aI534578
aI695890
aI1200982
aI317303
aI329381
aI235326
aI544284
aI142881
aI553827
aI535799
aI309462
aI467770
aI700895
aI446077
aI582380
aI102912
aI430389
aI291868
aI0
asS'L_Polar_total'
p14
I17906994
sS'H_total'
p15
I32156491
sS'total'
p16
I130064
sS'Hydrophobic'
p17
(lp18
I4492401
aI1008782
aI864756
aI1153238
aI3754102
aI2322200
aI3586624
aI738614
aI423863
aI1188312
aI5416416
aI1100679
aI762348
aI1453290
aI2409539
aI700287
aI2134005
aI658902
aI4422846
aI1485817
aI0
asS'Polar'
p19
(lp20
I2399212
aI254312
aI4792962
aI3796303
aI2569973
aI1240164
aI1472577
aI1295268
aI4616159
aI742749
aI2693929
aI2610875
aI2538329
aI2521106
aI3008032
aI3711087
aI2799384
aI578332
aI1845244
aI1654646
aI0
asS'T_Polar_total'
p21
I5844333
sS'T_total'
p22
I9034358
sS'H_Polar_total'
p23
I16637073
sS'L_total'
p24
I27390265
sS'total_residues'
p25
I87217664
sS'S_Hydrophobic_total'
p26
I11884307
s.