(dp0
S'1tit'
p1
(dp2
S'protein'
p3
(dp4
S'processdate'
p5
cdatetime
date
p6
(S'\x07\xe4\x04\x17'
p7
tp8
Rp9
sS'bends'
p10
I4
sS'sequence'
p11
VLIEVEKPLYGVEVFVGETAHFEIELSEPDVHGQWKLKGQPLTASPDCEIIEDGKKHILILHNCQLGMTGEVSFQAANAKSAANLKVKEL
p12
sS'ss'
p13
VLLLLTTLLLLSSSLTTTLSSSSSSLTTTTLLLTLLTTTLLLLLLLLSSSSSLTTSSSSSSLTLLTLLLSSSLLSSLLSSLLSSSSSLLL
p14
sS'pattern'
p15
V10111110111101111101010101111110101111111111110111110110101011011111010101011010101010111
p16
sS'loops'
p17
I3
sS'sheets'
p18
I11
sS'helices'
p19
I17
sS'protein_id'
p20
V1tit
p21
sS'size'
p22
I89
ssS'structures'
p23
(dp24
ssS'6w41'
p25
(dp26
g3
(dp27
g5
g9
sg10
I83
sg11
VQMQLVQSGTEVKKPGESLKISCKGSGYGFITYWIGWVRQMPGKGLEWMGIIYPGDSETRYSPSFQGQVTISADKSINTAYLQWSSLKASDTAIYYCAGGSGISTPMDVWGQGTTVTVSSASTKGPSVFPLAPSSKSTSGGTAALGCLVKDYFPEPVTVSWNSGALTSGVHTFPAVLQSSGLYSLSSVVTVPSSSLGTQTYICNVNHKPSNTKVDKKVEPKSCDIQLTQSPDSLAVSLGERATINCKSSQSVLYSSINKNYLAWYQQKPGQPPKLLIYWASTRESGVPDRFSGSGSGTDFTLTISSLQAEDVAVYYCQQYYSTPYTFGQGTKVEIKRTVAAPSVFIFPPSDEQLKSGTASVVCLLNNFYPREAKVQWKVDNALQSGNSQESVTEQDSKDSTYSLSSTLTLSKADYEKHKVYACEVTHQGLSSPVTKSFNRGECSTNLCPFGEVFNATRFASVYAWNRKRISNCVADYSVLYNSASFSTFKCYGVSPTKLNDLCFTNVYADSFVIRGDEVRQIAPGQTGKIADYNYKLPDDFTGCVIAWNSNNLDSKVGGNYNYLYRLFRKSNLKPFERDISTEIYQAGSTPCNGVEGFNCYFPLQSYGFQPTNGVGYQPYRVVVLSFELLHAPATVCGP
p28
sg13
VLLSSSSLLLSSSLLLLLSSSSSSSSTTLLLLLSSSSSSSLLLLLSSSSSSSSLLLLSSSSLLLLLLLTSSSSSLLLLSSSSSSTTLLHHHLSSSSSSSSTTLLTLLLSSLLLSSSSSLTLLLTLLSSSSSLLLTTTLTTTSSSSSSSSSSSTTTLLSSSSHHHLTLLLSSSLLLSSLLLTLSSSSSSSSSSHHHHLLTLSSSSSSSLLLLSSSSSSSLLLLLLLLSSSSLTSSSSLLLTLSSSSSSSTTLLLTLLLLTLLSSSSSSLLLTLLSSSSSLLLSSLLLLLLLSSSSSSLLSSSSSSTTLLHHHLSSSSSSSLTTTTLSSLLLSSSSSLLLLTLLSSSSSLLLHHHHHHLSSSSSSSSSSSTTTLLSSSSSSLLSSSLTTSSSSSLLLLLLLLLSSSSSSSSSSHHHHHLLLSSSSSSSLLLLTTLSSSSSSLLTLLLSSLLHHHHHLLTTLLLTLLLSSSSSLTSSLLLHHHHHLLLLTSSSSLTTLTLLLLLLSSTSSSSSSSSSSHHHHHHTTLLLLTHHHHHLLLLLLLLLSSSSSSSLLLLTLLTTLTLLLSSSLLLTTLLLLLLLLLLLLLSSLTTTLLTTLLTLLSSLTSSSLLTLLLTLHHHTSSSSSSSSSSLLTTLLLSSLL
p29
sg15
V10101011111111111010101011100100000001011111010000000011111101101110101111111001010110111010100000000000000010100100011011100100101011111111100000000100011011101111111110101111011011000000101010111110100010111111111101111110101011111101111101010101110111101100000000111110100000011111101110101111110100011011101000000001110010010010001111010101101001100111100000000100011110101011111111111000101111000000000101111011111000101011111111110111111111010110011110000100111101101010110111110100000000010011110000100000010100110011110100110010011000000011001101111001101101111110111111111111110111011111110110011010111111111010000000111111110101
p30
sg17
I48
sg18
I23
sg19
I80
sg20
V6w41
p31
sg22
I638
ssg23
(dp32
ss.