(dp0
S'S_Polar_total'
p1
I6752243
sS'L_Hydrophobic'
p2
(lp3
I880690
aI263857
aI158507
aI410841
aI1450055
aI450830
aI540839
aI196139
aI86801
aI212451
aI927559
aI379658
aI151474
aI839285
aI753237
aI161300
aI554887
aI120033
aI669308
aI275520
aI0
asS'H'
p4
(lp5
I3511186
aI386191
aI2809888
aI1589512
aI1173458
aI1325312
aI1974702
aI694521
aI2062777
aI889270
aI3857826
aI1059162
aI1496046
aI761345
aI1604024
aI1885777
aI1387332
aI494477
aI2071513
aI1122172
aI0
asS'L_Hydrophobic_total'
p6
I9483271
sS'T_Hydrophobic'
p7
(lp8
I253329
aI80395
aI54200
aI131506
aI629886
aI172775
aI189726
aI71972
aI29607
aI72775
aI300416
aI128604
aI49453
aI148176
aI241850
aI60936
aI188229
aI45447
aI235937
aI104806
aI0
asS'L'
p9
(lp10
I1723232
aI382044
aI1486620
aI2098964
aI3043508
aI865654
aI970010
aI684034
aI1565176
aI485018
aI1777598
aI1629059
aI929078
aI2396101
aI2084355
aI1271296
aI1669213
aI295112
aI1265859
aI768334
aI0
asS'H_Hydrophobic_total'
p11
I15519418
sS'S'
p12
(lp13
I1159040
aI380660
aI826632
aI565175
aI906127
aI1054095
aI1785108
aI420001
aI867785
aI413892
aI1921094
aI487534
aI566091
aI349180
aI1028297
aI808224
aI1294464
aI344733
aI2500329
aI958089
aI0
asS'S_total'
p14
I18636550
sS'T_Hydrophobic_total'
p15
I3190025
sS'T'
p16
(lp17
I498155
aI114199
aI534578
aI695890
aI1200982
aI317303
aI329381
aI235326
aI544284
aI142881
aI553827
aI535799
aI309462
aI467770
aI700895
aI446077
aI582380
aI102912
aI430389
aI291868
aI0
asS'L_Polar_total'
p18
I17906994
sS'H_total'
p19
I32156491
sS'total'
p20
I130064
sS'L_Polar'
p21
(lp22
I842542
aI118187
aI1328113
aI1688123
aI1593453
aI414824
aI429171
aI487895
aI1478375
aI272567
aI850039
aI1249401
aI777604
aI1556816
aI1331118
aI1109996
aI1114326
aI175079
aI596551
aI492814
aI0
asS'Polar'
p23
(lp24
I2399212
aI254312
aI4792962
aI3796303
aI2569973
aI1240164
aI1472577
aI1295268
aI4616159
aI742749
aI2693929
aI2610875
aI2538329
aI2521106
aI3008032
aI3711087
aI2799384
aI578332
aI1845244
aI1654646
aI0
asS'T_Polar_total'
p25
I5844333
sS'T_total'
p26
I9034358
sS'Hydrophobic'
p27
(lp28
I4492401
aI1008782
aI864756
aI1153238
aI3754102
aI2322200
aI3586624
aI738614
aI423863
aI1188312
aI5416416
aI1100679
aI762348
aI1453290
aI2409539
aI700287
aI2134005
aI658902
aI4422846
aI1485817
aI0
asS'T_Polar'
p29
(lp30
I244826
aI33804
aI480378
aI564384
aI571096
aI144528
aI139655
aI163354
aI514677
aI70106
aI253411
aI407195
aI260009
aI319594
aI459045
aI385141
aI394151
aI57465
aI194452
aI187062
aI0
asS'H_Hydrophobic'
p31
(lp32
I2357068
aI322137
aI438036
aI371017
aI871646
aI890839
aI1420896
aI256374
aI182950
aI589142
aI2674049
aI359565
aI356054
aI293121
aI780819
aI297011
aI716426
aI274457
aI1511851
aI555960
aI0
asS'S_Polar'
p33
(lp34
I157726
aI38267
aI612619
aI325301
aI103612
aI246339
aI349945
aI205872
aI743280
aI99948
aI406702
aI254682
aI360724
aI176472
aI394664
aI627184
aI620001
aI125768
aI494579
aI408558
aI0
asS'H_Polar'
p35
(lp36
I1154118
aI64054
aI2371852
aI1218495
aI301812
aI434473
aI553806
aI438147
aI1879827
aI300128
aI1183777
aI699597
aI1139992
aI468224
aI823205
aI1588766
aI670906
aI220020
aI559662
aI566212
aI0
asS'H_Polar_total'
p37
I16637073
sS'L_total'
p38
I27390265
sS'total_residues'
p39
I87217664
sS'S_Hydrophobic'
p40
(lp41
I1001314
aI342393
aI214013
aI239874
aI802515
aI807756
aI1435163
aI214129
aI124505
aI313944
aI1514392
aI232852
aI205367
aI172708
aI633633
aI181040
aI674463
aI218965
aI2005750
aI549531
aI0
asS'S_Hydrophobic_total'
p42
I11884307
s.